target datalayout = "e-m:e-p270:32:32-p271:32:32-p272:64:64-i64:64-i128:128-f80:128-n8:16:32:64-S128"
target triple = "x86_64-pc-linux-gnu"

%class.anon.637 = type { ptr, ptr }
%"struct.__gnu_cxx::__ops::_Iter_comp_iter.640" = type { %class.anon.637 }

; Function Attrs: mustprogress uwtable
define internal void @"_ZSt21__inplace_stable_sortIPPN4pkpy8PyObjectEN9__gnu_cxx5__ops15_Iter_comp_iterIZZNS0_15__init_builtinsEPNS0_2VMEENK5$_110clES8_NS0_8ArgsViewEEUlS2_S2_E0_EEEvT_SD_T0_"(ptr noundef %0, ptr noundef %1, ptr %2, ptr %3) #4 {
  %5 = alloca %"struct.__gnu_cxx::__ops::_Iter_comp_iter.640", align 8
  %6 = alloca ptr, align 8
  %7 = alloca ptr, align 8
  %8 = alloca %"struct.__gnu_cxx::__ops::_Iter_comp_iter.640", align 8
  %9 = alloca ptr, align 8
  %10 = alloca %"struct.__gnu_cxx::__ops::_Iter_comp_iter.640", align 8
  %11 = alloca %"struct.__gnu_cxx::__ops::_Iter_comp_iter.640", align 8
  %12 = alloca %"struct.__gnu_cxx::__ops::_Iter_comp_iter.640", align 8
  %13 = getelementptr inbounds { ptr, ptr }, ptr %5, i32 0, i32 0
  store ptr %2, ptr %13, align 8
  %14 = getelementptr inbounds { ptr, ptr }, ptr %5, i32 0, i32 1
  store ptr %3, ptr %14, align 8
  store ptr %0, ptr %6, align 8
  store ptr %1, ptr %7, align 8
  %15 = load ptr, ptr %7, align 8
  %16 = load ptr, ptr %6, align 8
  %17 = ptrtoint ptr %15 to i64
  %18 = ptrtoint ptr %16 to i64
  %19 = sub i64 %17, %18
  %20 = sdiv exact i64 %19, 8
  %21 = icmp slt i64 %20, 15
  br i1 %21, label %22, label %29

22:                                               ; preds = %4
  %23 = load ptr, ptr %6, align 8
  %24 = load ptr, ptr %7, align 8
  call void @llvm.memcpy.p0.p0.i64(ptr align 8 %8, ptr align 8 %5, i64 16, i1 false)
  %25 = getelementptr inbounds { ptr, ptr }, ptr %8, i32 0, i32 0
  %26 = load ptr, ptr %25, align 8
  %27 = getelementptr inbounds { ptr, ptr }, ptr %8, i32 0, i32 1
  %28 = load ptr, ptr %27, align 8
  call void @"_ZSt16__insertion_sortIPPN4pkpy8PyObjectEN9__gnu_cxx5__ops15_Iter_comp_iterIZZNS0_15__init_builtinsEPNS0_2VMEENK5$_110clES8_NS0_8ArgsViewEEUlS2_S2_E0_EEEvT_SD_T0_"(ptr noundef %23, ptr noundef %24, ptr %26, ptr %28)
  br label %66

29:                                               ; preds = %4
  %30 = load ptr, ptr %6, align 8
  %31 = load ptr, ptr %7, align 8
  %32 = load ptr, ptr %6, align 8
  %33 = ptrtoint ptr %31 to i64
  %34 = ptrtoint ptr %32 to i64
  %35 = sub i64 %33, %34
  %36 = sdiv exact i64 %35, 8
  %37 = sdiv i64 %36, 2
  %38 = getelementptr inbounds ptr, ptr %30, i64 %37
  store ptr %38, ptr %9, align 8
  %39 = load ptr, ptr %6, align 8
  %40 = load ptr, ptr %9, align 8
  call void @llvm.memcpy.p0.p0.i64(ptr align 8 %10, ptr align 8 %5, i64 16, i1 false)
  %41 = getelementptr inbounds { ptr, ptr }, ptr %10, i32 0, i32 0
  %42 = load ptr, ptr %41, align 8
  %43 = getelementptr inbounds { ptr, ptr }, ptr %10, i32 0, i32 1
  %44 = load ptr, ptr %43, align 8
  call void @"_ZSt21__inplace_stable_sortIPPN4pkpy8PyObjectEN9__gnu_cxx5__ops15_Iter_comp_iterIZZNS0_15__init_builtinsEPNS0_2VMEENK5$_110clES8_NS0_8ArgsViewEEUlS2_S2_E0_EEEvT_SD_T0_"(ptr noundef %39, ptr noundef %40, ptr %42, ptr %44)
  %45 = load ptr, ptr %9, align 8
  %46 = load ptr, ptr %7, align 8
  call void @llvm.memcpy.p0.p0.i64(ptr align 8 %11, ptr align 8 %5, i64 16, i1 false)
  %47 = getelementptr inbounds { ptr, ptr }, ptr %11, i32 0, i32 0
  %48 = load ptr, ptr %47, align 8
  %49 = getelementptr inbounds { ptr, ptr }, ptr %11, i32 0, i32 1
  %50 = load ptr, ptr %49, align 8
  call void @"_ZSt21__inplace_stable_sortIPPN4pkpy8PyObjectEN9__gnu_cxx5__ops15_Iter_comp_iterIZZNS0_15__init_builtinsEPNS0_2VMEENK5$_110clES8_NS0_8ArgsViewEEUlS2_S2_E0_EEEvT_SD_T0_"(ptr noundef %45, ptr noundef %46, ptr %48, ptr %50)
  %51 = load ptr, ptr %6, align 8
  %52 = load ptr, ptr %9, align 8
  %53 = load ptr, ptr %7, align 8
  %54 = load ptr, ptr %9, align 8
  %55 = load ptr, ptr %6, align 8
  %56 = ptrtoint ptr %54 to i64
  %57 = ptrtoint ptr %55 to i64
  %58 = sub i64 %56, %57
  %59 = sdiv exact i64 %58, 8
  %60 = load ptr, ptr %7, align 8
  %61 = load ptr, ptr %9, align 8
  %62 = ptrtoint ptr %60 to i64
  %63 = ptrtoint ptr %61 to i64
  %64 = sub i64 %62, %63
  %65 = sdiv exact i64 %64, 8
  call void @llvm.memcpy.p0.p0.i64(ptr align 8 %12, ptr align 8 %5, i64 16, i1 false)
  call void @"_ZSt22__merge_without_bufferIPPN4pkpy8PyObjectElN9__gnu_cxx5__ops15_Iter_comp_iterIZZNS0_15__init_builtinsEPNS0_2VMEENK5$_110clES8_NS0_8ArgsViewEEUlS2_S2_E0_EEEvT_SD_SD_T0_SE_T1_"(ptr noundef %51, ptr noundef %52, ptr noundef %53, i64 noundef %59, i64 noundef %65, ptr noundef byval(%"struct.__gnu_cxx::__ops::_Iter_comp_iter.640") align 8 %12)
  br label %66

66:                                               ; preds = %29, %22
  ret void
}