; Function Attrs: mustprogress uwtable
define internal fastcc void @"_ZSt21__inplace_stable_sortIPPN4pkpy8PyObjectEN9__gnu_cxx5__ops15_Iter_comp_iterIZZNS0_15__init_builtinsEPNS0_2VMEENK5$_110clES8_NS0_8ArgsViewEEUlS2_S2_E0_EEEvT_SD_T0_"(ptr noundef %0, ptr noundef %1, ptr %2, ptr %3) unnamed_addr #4 {
  %5 = alloca %"struct.__gnu_cxx::__ops::_Iter_comp_iter.640", align 8
  %6 = ptrtoint ptr %1 to i64
  %7 = ptrtoint ptr %0 to i64
  %8 = sub i64 %6, %7
  %9 = ashr exact i64 %8, 3
  %10 = icmp slt i64 %9, 15
  br i1 %10, label %common.ret, label %11

common.ret:                                       ; preds = %4
  tail call fastcc void @"_ZSt16__insertion_sortIPPN4pkpy8PyObjectEN9__gnu_cxx5__ops15_Iter_comp_iterIZZNS0_15__init_builtinsEPNS0_2VMEENK5$_110clES8_NS0_8ArgsViewEEUlS2_S2_E0_EEEvT_SD_T0_"(ptr noundef %0, ptr noundef %1, ptr %2, ptr %3)
  br label %common.ret23

common.ret23:                                     ; preds = %11, %common.ret
  ret void

11:                                               ; preds = %4
  %12 = lshr i64 %9, 1
  %13 = getelementptr inbounds ptr, ptr %0, i64 %12
  tail call fastcc void @"_ZSt21__inplace_stable_sortIPPN4pkpy8PyObjectEN9__gnu_cxx5__ops15_Iter_comp_iterIZZNS0_15__init_builtinsEPNS0_2VMEENK5$_110clES8_NS0_8ArgsViewEEUlS2_S2_E0_EEEvT_SD_T0_"(ptr noundef %0, ptr noundef %13, ptr %2, ptr %3)
  tail call fastcc void @"_ZSt21__inplace_stable_sortIPPN4pkpy8PyObjectEN9__gnu_cxx5__ops15_Iter_comp_iterIZZNS0_15__init_builtinsEPNS0_2VMEENK5$_110clES8_NS0_8ArgsViewEEUlS2_S2_E0_EEEvT_SD_T0_"(ptr noundef %13, ptr noundef %1, ptr %2, ptr %3)
  %14 = ptrtoint ptr %13 to i64
  %15 = sub i64 %6, %14
  %16 = ashr exact i64 %15, 3
  store ptr %2, ptr %5, align 8
  %.sroa.5.0..sroa_idx = getelementptr inbounds i8, ptr %5, i64 8
  store ptr %3, ptr %.sroa.5.0..sroa_idx, align 8
  tail call fastcc void @"_ZSt22__merge_without_bufferIPPN4pkpy8PyObjectElN9__gnu_cxx5__ops15_Iter_comp_iterIZZNS0_15__init_builtinsEPNS0_2VMEENK5$_110clES8_NS0_8ArgsViewEEUlS2_S2_E0_EEEvT_SD_SD_T0_SE_T1_"(ptr noundef %0, ptr noundef %13, ptr noundef %1, i64 noundef %12, i64 noundef %16, ptr noundef nonnull byval(%"struct.__gnu_cxx::__ops::_Iter_comp_iter.640") align 8 %5)
  br label %common.ret23
}